#include <math.h>
#include <stdio.h>
#include <stdlib.h>
#include <string.h>

void main()
{
 int n,t=1,i,j,a[10000];
 char c[100000];
 gets(c);
 for (i=0;c[i]!=' '&&c[i]!='\0';i++)
 a[0]=i+1; 
 for (i=1;c[i]!='\0';i++)
    {
     if (c[i-1]==' '&&c[i]!=' ')
	 {for (j=i;c[j]!=' '&&c[j]!='\0';j++)
	 {
	 }      
	   a[t]=j-i;
	   t++;}
    }
 for (i=0;i<t-1;i++)
    { printf ("%d,",a[i]);}
printf ("%d",a[t-1]);
}
