; ModuleID = '28/1330.c'
source_filename = "28/1330.c"
target datalayout = "e-m:e-p270:32:32-p271:32:32-p272:64:64-i64:64-f80:128-n8:16:32:64-S128"
target triple = "x86_64-pc-linux-gnu"

@.str = private unnamed_addr constant [4 x i8] c"%d,\00", align 1
@.str.1 = private unnamed_addr constant [3 x i8] c"%d\00", align 1

; Function Attrs: noinline nounwind uwtable
define dso_local void @main() #0 {
  %1 = alloca i32, align 4
  %2 = alloca i32, align 4
  %3 = alloca i32, align 4
  %4 = alloca i32, align 4
  %5 = alloca [10000 x i32], align 16
  %6 = alloca [100000 x i8], align 16
  store i32 1, i32* %2, align 4
  %7 = getelementptr inbounds [100000 x i8], [100000 x i8]* %6, i64 0, i64 0
  %8 = call i32 (i8*, ...) bitcast (i32 (...)* @gets to i32 (i8*, ...)*)(i8* %7)
  store i32 0, i32* %3, align 4
  br label %9

9:                                                ; preds = %29, %0
  %10 = load i32, i32* %3, align 4
  %11 = sext i32 %10 to i64
  %12 = getelementptr inbounds [100000 x i8], [100000 x i8]* %6, i64 0, i64 %11
  %13 = load i8, i8* %12, align 1
  %14 = sext i8 %13 to i32
  %15 = icmp ne i32 %14, 32
  br i1 %15, label %16, label %23

16:                                               ; preds = %9
  %17 = load i32, i32* %3, align 4
  %18 = sext i32 %17 to i64
  %19 = getelementptr inbounds [100000 x i8], [100000 x i8]* %6, i64 0, i64 %18
  %20 = load i8, i8* %19, align 1
  %21 = sext i8 %20 to i32
  %22 = icmp ne i32 %21, 0
  br label %23

23:                                               ; preds = %16, %9
  %24 = phi i1 [ false, %9 ], [ %22, %16 ]
  br i1 %24, label %25, label %32

25:                                               ; preds = %23
  %26 = load i32, i32* %3, align 4
  %27 = add nsw i32 %26, 1
  %28 = getelementptr inbounds [10000 x i32], [10000 x i32]* %5, i64 0, i64 0
  store i32 %27, i32* %28, align 16
  br label %29

29:                                               ; preds = %25
  %30 = load i32, i32* %3, align 4
  %31 = add nsw i32 %30, 1
  store i32 %31, i32* %3, align 4
  br label %9

32:                                               ; preds = %23
  store i32 1, i32* %3, align 4
  br label %33

33:                                               ; preds = %87, %32
  %34 = load i32, i32* %3, align 4
  %35 = sext i32 %34 to i64
  %36 = getelementptr inbounds [100000 x i8], [100000 x i8]* %6, i64 0, i64 %35
  %37 = load i8, i8* %36, align 1
  %38 = sext i8 %37 to i32
  %39 = icmp ne i32 %38, 0
  br i1 %39, label %40, label %90

40:                                               ; preds = %33
  %41 = load i32, i32* %3, align 4
  %42 = sub nsw i32 %41, 1
  %43 = sext i32 %42 to i64
  %44 = getelementptr inbounds [100000 x i8], [100000 x i8]* %6, i64 0, i64 %43
  %45 = load i8, i8* %44, align 1
  %46 = sext i8 %45 to i32
  %47 = icmp eq i32 %46, 32
  br i1 %47, label %48, label %86

48:                                               ; preds = %40
  %49 = load i32, i32* %3, align 4
  %50 = sext i32 %49 to i64
  %51 = getelementptr inbounds [100000 x i8], [100000 x i8]* %6, i64 0, i64 %50
  %52 = load i8, i8* %51, align 1
  %53 = sext i8 %52 to i32
  %54 = icmp ne i32 %53, 32
  br i1 %54, label %55, label %86

55:                                               ; preds = %48
  %56 = load i32, i32* %3, align 4
  store i32 %56, i32* %4, align 4
  br label %57

57:                                               ; preds = %74, %55
  %58 = load i32, i32* %4, align 4
  %59 = sext i32 %58 to i64
  %60 = getelementptr inbounds [100000 x i8], [100000 x i8]* %6, i64 0, i64 %59
  %61 = load i8, i8* %60, align 1
  %62 = sext i8 %61 to i32
  %63 = icmp ne i32 %62, 32
  br i1 %63, label %64, label %71

64:                                               ; preds = %57
  %65 = load i32, i32* %4, align 4
  %66 = sext i32 %65 to i64
  %67 = getelementptr inbounds [100000 x i8], [100000 x i8]* %6, i64 0, i64 %66
  %68 = load i8, i8* %67, align 1
  %69 = sext i8 %68 to i32
  %70 = icmp ne i32 %69, 0
  br label %71

71:                                               ; preds = %64, %57
  %72 = phi i1 [ false, %57 ], [ %70, %64 ]
  br i1 %72, label %73, label %77

73:                                               ; preds = %71
  br label %74

74:                                               ; preds = %73
  %75 = load i32, i32* %4, align 4
  %76 = add nsw i32 %75, 1
  store i32 %76, i32* %4, align 4
  br label %57

77:                                               ; preds = %71
  %78 = load i32, i32* %4, align 4
  %79 = load i32, i32* %3, align 4
  %80 = sub nsw i32 %78, %79
  %81 = load i32, i32* %2, align 4
  %82 = sext i32 %81 to i64
  %83 = getelementptr inbounds [10000 x i32], [10000 x i32]* %5, i64 0, i64 %82
  store i32 %80, i32* %83, align 4
  %84 = load i32, i32* %2, align 4
  %85 = add nsw i32 %84, 1
  store i32 %85, i32* %2, align 4
  br label %86

86:                                               ; preds = %77, %48, %40
  br label %87

87:                                               ; preds = %86
  %88 = load i32, i32* %3, align 4
  %89 = add nsw i32 %88, 1
  store i32 %89, i32* %3, align 4
  br label %33

90:                                               ; preds = %33
  store i32 0, i32* %3, align 4
  br label %91

91:                                               ; preds = %102, %90
  %92 = load i32, i32* %3, align 4
  %93 = load i32, i32* %2, align 4
  %94 = sub nsw i32 %93, 1
  %95 = icmp slt i32 %92, %94
  br i1 %95, label %96, label %105

96:                                               ; preds = %91
  %97 = load i32, i32* %3, align 4
  %98 = sext i32 %97 to i64
  %99 = getelementptr inbounds [10000 x i32], [10000 x i32]* %5, i64 0, i64 %98
  %100 = load i32, i32* %99, align 4
  %101 = call i32 (i8*, ...) @printf(i8* getelementptr inbounds ([4 x i8], [4 x i8]* @.str, i64 0, i64 0), i32 %100)
  br label %102

102:                                              ; preds = %96
  %103 = load i32, i32* %3, align 4
  %104 = add nsw i32 %103, 1
  store i32 %104, i32* %3, align 4
  br label %91

105:                                              ; preds = %91
  %106 = load i32, i32* %2, align 4
  %107 = sub nsw i32 %106, 1
  %108 = sext i32 %107 to i64
  %109 = getelementptr inbounds [10000 x i32], [10000 x i32]* %5, i64 0, i64 %108
  %110 = load i32, i32* %109, align 4
  %111 = call i32 (i8*, ...) @printf(i8* getelementptr inbounds ([3 x i8], [3 x i8]* @.str.1, i64 0, i64 0), i32 %110)
  ret void
}

declare dso_local i32 @gets(...) #1

declare dso_local i32 @printf(i8*, ...) #1


!llvm.module.flags = !{!0}
!llvm.ident = !{!1}

!0 = !{i32 1, !"wchar_size", i32 4}
!1 = !{!"clang version 10.0.0-4ubuntu1 "}
